target datalayout = "e-m:e-p270:32:32-p271:32:32-p272:64:64-i64:64-i128:128-f80:128-n8:16:32:64-S128"
target triple = "x86_64-pc-linux-gnu"

%"class.icu_77::SpoofData" = type { ptr, i8, ptr, i32, %"struct.std::atomic", ptr, ptr, ptr }
%"struct.std::atomic" = type { %"struct.std::__atomic_base" }
%"struct.std::__atomic_base" = type { i32 }
%"struct.icu_77::SpoofDataHeader" = type { i32, [4 x i8], i32, i32, i32, i32, i32, i32, i32, [15 x i32] }

; Function Attrs: mustprogress uwtable
define void @_ZN6icu_779SpoofData8initPtrsER10UErrorCode(ptr noundef nonnull align 8 dereferenceable(56) %0, ptr noundef nonnull align 4 dereferenceable(4) %1) #1 align 2 {
  %3 = alloca ptr, align 8
  %4 = alloca ptr, align 8
  store ptr %0, ptr %3, align 8, !tbaa !8
  store ptr %1, ptr %4, align 8, !tbaa !10
  %5 = load ptr, ptr %3, align 8
  %6 = getelementptr inbounds nuw %"class.icu_77::SpoofData", ptr %5, i32 0, i32 5
  store ptr null, ptr %6, align 8, !tbaa !99
  %7 = getelementptr inbounds nuw %"class.icu_77::SpoofData", ptr %5, i32 0, i32 6
  store ptr null, ptr %7, align 8, !tbaa !100
  %8 = getelementptr inbounds nuw %"class.icu_77::SpoofData", ptr %5, i32 0, i32 7
  store ptr null, ptr %8, align 8, !tbaa !101
  %9 = load ptr, ptr %4, align 8, !tbaa !10
  %10 = load i32, ptr %9, align 4, !tbaa !30
  %11 = call noundef signext i8 @_ZL9U_FAILURE10UErrorCode(i32 noundef %10)
  %12 = icmp ne i8 %11, 0
  br i1 %12, label %13, label %14

13:                                               ; preds = %2
  br label %62

14:                                               ; preds = %2
  %15 = getelementptr inbounds nuw %"class.icu_77::SpoofData", ptr %5, i32 0, i32 0
  %16 = load ptr, ptr %15, align 8, !tbaa !35
  %17 = getelementptr inbounds nuw %"struct.icu_77::SpoofDataHeader", ptr %16, i32 0, i32 3
  %18 = load i32, ptr %17, align 4, !tbaa !102
  %19 = icmp ne i32 %18, 0
  br i1 %19, label %20, label %30

20:                                               ; preds = %14
  %21 = getelementptr inbounds nuw %"class.icu_77::SpoofData", ptr %5, i32 0, i32 0
  %22 = load ptr, ptr %21, align 8, !tbaa !35
  %23 = getelementptr inbounds nuw %"class.icu_77::SpoofData", ptr %5, i32 0, i32 0
  %24 = load ptr, ptr %23, align 8, !tbaa !35
  %25 = getelementptr inbounds nuw %"struct.icu_77::SpoofDataHeader", ptr %24, i32 0, i32 3
  %26 = load i32, ptr %25, align 4, !tbaa !102
  %27 = sext i32 %26 to i64
  %28 = getelementptr inbounds i8, ptr %22, i64 %27
  %29 = getelementptr inbounds nuw %"class.icu_77::SpoofData", ptr %5, i32 0, i32 5
  store ptr %28, ptr %29, align 8, !tbaa !99
  br label %30

30:                                               ; preds = %20, %14
  %31 = getelementptr inbounds nuw %"class.icu_77::SpoofData", ptr %5, i32 0, i32 0
  %32 = load ptr, ptr %31, align 8, !tbaa !35
  %33 = getelementptr inbounds nuw %"struct.icu_77::SpoofDataHeader", ptr %32, i32 0, i32 5
  %34 = load i32, ptr %33, align 4, !tbaa !103
  %35 = icmp ne i32 %34, 0
  br i1 %35, label %36, label %46

36:                                               ; preds = %30
  %37 = getelementptr inbounds nuw %"class.icu_77::SpoofData", ptr %5, i32 0, i32 0
  %38 = load ptr, ptr %37, align 8, !tbaa !35
  %39 = getelementptr inbounds nuw %"class.icu_77::SpoofData", ptr %5, i32 0, i32 0
  %40 = load ptr, ptr %39, align 8, !tbaa !35
  %41 = getelementptr inbounds nuw %"struct.icu_77::SpoofDataHeader", ptr %40, i32 0, i32 5
  %42 = load i32, ptr %41, align 4, !tbaa !103
  %43 = sext i32 %42 to i64
  %44 = getelementptr inbounds i8, ptr %38, i64 %43
  %45 = getelementptr inbounds nuw %"class.icu_77::SpoofData", ptr %5, i32 0, i32 6
  store ptr %44, ptr %45, align 8, !tbaa !100
  br label %46

46:                                               ; preds = %36, %30
  %47 = getelementptr inbounds nuw %"class.icu_77::SpoofData", ptr %5, i32 0, i32 0
  %48 = load ptr, ptr %47, align 8, !tbaa !35
  %49 = getelementptr inbounds nuw %"struct.icu_77::SpoofDataHeader", ptr %48, i32 0, i32 7
  %50 = load i32, ptr %49, align 4, !tbaa !104
  %51 = icmp ne i32 %50, 0
  br i1 %51, label %52, label %62

52:                                               ; preds = %46
  %53 = getelementptr inbounds nuw %"class.icu_77::SpoofData", ptr %5, i32 0, i32 0
  %54 = load ptr, ptr %53, align 8, !tbaa !35
  %55 = getelementptr inbounds nuw %"class.icu_77::SpoofData", ptr %5, i32 0, i32 0
  %56 = load ptr, ptr %55, align 8, !tbaa !35
  %57 = getelementptr inbounds nuw %"struct.icu_77::SpoofDataHeader", ptr %56, i32 0, i32 7
  %58 = load i32, ptr %57, align 4, !tbaa !104
  %59 = sext i32 %58 to i64
  %60 = getelementptr inbounds i8, ptr %54, i64 %59
  %61 = getelementptr inbounds nuw %"class.icu_77::SpoofData", ptr %5, i32 0, i32 7
  store ptr %60, ptr %61, align 8, !tbaa !101
  br label %62

62:                                               ; preds = %13, %52, %46
  ret void
}

; Function Attrs: inlinehint mustprogress nounwind uwtable
define internal noundef signext i8 @_ZL9U_FAILURE10UErrorCode(i32 noundef %0) #2 {
  %2 = alloca i32, align 4
  store i32 %0, ptr %2, align 4, !tbaa !30
  %3 = load i32, ptr %2, align 4, !tbaa !30
  %4 = icmp sgt i32 %3, 0
  %5 = zext i1 %4 to i8
  ret i8 %5
}

; Function Attrs: mustprogress uwtable
define noundef ptr @_ZN6icu_779SpoofData12reserveSpaceEiR10UErrorCode(ptr noundef nonnull align 8 dereferenceable(56) %0, i32 noundef %1, ptr noundef nonnull align 4 dereferenceable(4) %2) #1 align 2 {
  %4 = alloca ptr, align 8
  %5 = alloca ptr, align 8
  %6 = alloca i32, align 4
  %7 = alloca ptr, align 8
  %8 = alloca i32, align 4
  store ptr %0, ptr %5, align 8, !tbaa !8
  store i32 %1, ptr %6, align 4, !tbaa !48
  store ptr %2, ptr %7, align 8, !tbaa !10
  %9 = load ptr, ptr %5, align 8
  %10 = load ptr, ptr %7, align 8, !tbaa !10
  %11 = load i32, ptr %10, align 4, !tbaa !30
  %12 = call noundef signext i8 @_ZL9U_FAILURE10UErrorCode(i32 noundef %11)
  %13 = icmp ne i8 %12, 0
  br i1 %13, label %14, label %15

14:                                               ; preds = %3
  store ptr null, ptr %4, align 8
  br label %55

15:                                               ; preds = %3
  %16 = getelementptr inbounds nuw %"class.icu_77::SpoofData", ptr %9, i32 0, i32 1
  %17 = load i8, ptr %16, align 8, !tbaa !97
  %18 = icmp ne i8 %17, 0
  br i1 %18, label %20, label %19

19:                                               ; preds = %15
  call void @abort() #16
  unreachable

20:                                               ; preds = %15
  %21 = load i32, ptr %6, align 4, !tbaa !48
  %22 = add nsw i32 %21, 15
  %23 = and i32 %22, -16
  store i32 %23, ptr %6, align 4, !tbaa !48
  call void @llvm.lifetime.start.p0(i64 4, ptr %8) #15
  %24 = getelementptr inbounds nuw %"class.icu_77::SpoofData", ptr %9, i32 0, i32 3
  %25 = load i32, ptr %24, align 8, !tbaa !98
  store i32 %25, ptr %8, align 4, !tbaa !48
  %26 = load i32, ptr %6, align 4, !tbaa !48
  %27 = getelementptr inbounds nuw %"class.icu_77::SpoofData", ptr %9, i32 0, i32 3
  %28 = load i32, ptr %27, align 8, !tbaa !98
  %29 = add i32 %28, %26
  store i32 %29, ptr %27, align 8, !tbaa !98
  %30 = getelementptr inbounds nuw %"class.icu_77::SpoofData", ptr %9, i32 0, i32 0
  %31 = load ptr, ptr %30, align 8, !tbaa !35
  %32 = getelementptr inbounds nuw %"class.icu_77::SpoofData", ptr %9, i32 0, i32 3
  %33 = load i32, ptr %32, align 8, !tbaa !98
  %34 = zext i32 %33 to i64
  %35 = call ptr @uprv_realloc_77(ptr noundef %31, i64 noundef %34) #19
  %36 = getelementptr inbounds nuw %"class.icu_77::SpoofData", ptr %9, i32 0, i32 0
  store ptr %35, ptr %36, align 8, !tbaa !35
  %37 = getelementptr inbounds nuw %"class.icu_77::SpoofData", ptr %9, i32 0, i32 3
  %38 = load i32, ptr %37, align 8, !tbaa !98
  %39 = getelementptr inbounds nuw %"class.icu_77::SpoofData", ptr %9, i32 0, i32 0
  %40 = load ptr, ptr %39, align 8, !tbaa !35
  %41 = getelementptr inbounds nuw %"struct.icu_77::SpoofDataHeader", ptr %40, i32 0, i32 2
  store i32 %38, ptr %41, align 4, !tbaa !105
  %42 = getelementptr inbounds nuw %"class.icu_77::SpoofData", ptr %9, i32 0, i32 0
  %43 = load ptr, ptr %42, align 8, !tbaa !35
  %44 = load i32, ptr %8, align 4, !tbaa !48
  %45 = zext i32 %44 to i64
  %46 = getelementptr inbounds nuw i8, ptr %43, i64 %45
  %47 = load i32, ptr %6, align 4, !tbaa !48
  %48 = sext i32 %47 to i64
  call void @llvm.memset.p0.i64(ptr align 1 %46, i8 0, i64 %48, i1 false)
  %49 = load ptr, ptr %7, align 8, !tbaa !10
  call void @_ZN6icu_779SpoofData8initPtrsER10UErrorCode(ptr noundef nonnull align 8 dereferenceable(56) %9, ptr noundef nonnull align 4 dereferenceable(4) %49)
  %50 = getelementptr inbounds nuw %"class.icu_77::SpoofData", ptr %9, i32 0, i32 0
  %51 = load ptr, ptr %50, align 8, !tbaa !35
  %52 = load i32, ptr %8, align 4, !tbaa !48
  %53 = zext i32 %52 to i64
  %54 = getelementptr inbounds nuw i8, ptr %51, i64 %53
  store ptr %54, ptr %4, align 8
  call void @llvm.lifetime.end.p0(i64 4, ptr %8) #15
  br label %55

55:                                               ; preds = %20, %14
  %56 = load ptr, ptr %4, align 8
  ret ptr %56
}