; Function Attrs: mustprogress uwtable
define noundef ptr @_ZN6icu_779SpoofData12reserveSpaceEiR10UErrorCode(ptr noundef nonnull align 8 captures(none) dereferenceable(56) %0, i32 noundef %1, ptr noundef nonnull readonly align 4 captures(none) dereferenceable(4) %2) local_unnamed_addr #1 align 2 {
  %4 = load i32, ptr %2, align 4, !tbaa !19
  %5 = icmp slt i32 %4, 1
  br i1 %5, label %6, label %48

6:                                                ; preds = %3
  %7 = getelementptr inbounds nuw i8, ptr %0, i64 8
  %8 = load i8, ptr %7, align 8, !tbaa !73
  %.not8 = icmp eq i8 %8, 0
  br i1 %.not8, label %9, label %10

9:                                                ; preds = %6
  tail call void @abort() #22
  unreachable

10:                                               ; preds = %6
  %11 = add nsw i32 %1, 15
  %12 = and i32 %11, -16
  %13 = getelementptr inbounds nuw i8, ptr %0, i64 24
  %14 = load i32, ptr %13, align 8, !tbaa !75
  %15 = add i32 %14, %12
  store i32 %15, ptr %13, align 8, !tbaa !75
  %16 = load ptr, ptr %0, align 8, !tbaa !29
  %17 = zext i32 %15 to i64
  %18 = tail call ptr @uprv_realloc_77(ptr noundef %16, i64 noundef %17) #25
  store ptr %18, ptr %0, align 8, !tbaa !29
  %19 = load i32, ptr %13, align 8, !tbaa !75
  %20 = getelementptr inbounds nuw i8, ptr %18, i64 8
  store i32 %19, ptr %20, align 4, !tbaa !79
  %21 = zext i32 %14 to i64
  %22 = getelementptr inbounds nuw i8, ptr %18, i64 %21
  %23 = sext i32 %12 to i64
  tail call void @llvm.memset.p0.i64(ptr align 1 %22, i8 0, i64 %23, i1 false)
  %24 = getelementptr inbounds nuw i8, ptr %0, i64 32
  %25 = getelementptr inbounds nuw i8, ptr %0, i64 40
  %26 = getelementptr inbounds nuw i8, ptr %0, i64 48
  tail call void @llvm.memset.p0.i64(ptr noundef nonnull align 8 dereferenceable(24) %24, i8 0, i64 24, i1 false)
  %27 = load i32, ptr %2, align 4, !tbaa !19
  %28 = icmp slt i32 %27, 1
  %.pre = load ptr, ptr %0, align 8, !tbaa !29
  br i1 %28, label %29, label %_ZN6icu_779SpoofData8initPtrsER10UErrorCode.exit

29:                                               ; preds = %10
  %30 = getelementptr inbounds nuw i8, ptr %.pre, i64 12
  %31 = load i32, ptr %30, align 4, !tbaa !76
  %.not4.i = icmp eq i32 %31, 0
  br i1 %.not4.i, label %35, label %32

32:                                               ; preds = %29
  %33 = sext i32 %31 to i64
  %34 = getelementptr inbounds i8, ptr %.pre, i64 %33
  store ptr %34, ptr %24, align 8, !tbaa !52
  br label %35

35:                                               ; preds = %32, %29
  %36 = getelementptr inbounds nuw i8, ptr %.pre, i64 20
  %37 = load i32, ptr %36, align 4, !tbaa !77
  %.not5.i = icmp eq i32 %37, 0
  br i1 %.not5.i, label %41, label %38

38:                                               ; preds = %35
  %39 = sext i32 %37 to i64
  %40 = getelementptr inbounds i8, ptr %.pre, i64 %39
  store ptr %40, ptr %25, align 8, !tbaa !55
  br label %41

41:                                               ; preds = %38, %35
  %42 = getelementptr inbounds nuw i8, ptr %.pre, i64 28
  %43 = load i32, ptr %42, align 4, !tbaa !78
  %.not6.i = icmp eq i32 %43, 0
  br i1 %.not6.i, label %_ZN6icu_779SpoofData8initPtrsER10UErrorCode.exit, label %44

44:                                               ; preds = %41
  %45 = sext i32 %43 to i64
  %46 = getelementptr inbounds i8, ptr %.pre, i64 %45
  store ptr %46, ptr %26, align 8, !tbaa !58
  br label %_ZN6icu_779SpoofData8initPtrsER10UErrorCode.exit

_ZN6icu_779SpoofData8initPtrsER10UErrorCode.exit: ; preds = %10, %41, %44
  %47 = getelementptr inbounds nuw i8, ptr %.pre, i64 %21
  br label %48

48:                                               ; preds = %3, %_ZN6icu_779SpoofData8initPtrsER10UErrorCode.exit
  %.0 = phi ptr [ %47, %_ZN6icu_779SpoofData8initPtrsER10UErrorCode.exit ], [ null, %3 ]
  ret ptr %.0
}